(lp0
ccopy_reg
_reconstructor
p1
(copenstack_dashboard.dashboards.bioinformatics.gojs_parser.gojsnode
GoJsNode
p2
c__builtin__
object
p3
Ntp4
Rp5
(dp6
S'inputs'
p7
(lp8
(dp9
S'input_file[0]'
p10
S'test.fasta'
p11
sa(dp12
S'output_file'
p13
S'clustalw/output1.fasta'
p14
sasS'next_node_key'
p15
I-3
sS'name'
p16
S'A'
p17
sS'output_url'
p18
g14
sS'docker_container_name'
p19
S'container187'
p20
sS'image_name'
p21
S'techbk/bio-wrapper:clustalw-0.0.3'
p22
sS'input_url'
p23
S'clustalw/test.fasta|'
p24
sS'command'
p25
S'clustalw -infile={input_file[0]} -type=protein -matrix=pam -outfile={output_file} -outorder=input'
p26
sS'key'
p27
I-2
sS'prev_node_key'
p28
NsS'swift_container_input'
p29
S'clustalw'
p30
sS'container_ip'
p31
V172.17.0.2
p32
sbag1
(g2
g3
Ntp33
Rp34
(dp35
g7
(lp36
(dp37
S'input_file[0]'
p38
S'test.fasta'
p39
sa(dp40
S'output_file'
p41
S'clustalw/output2.fasta'
p42
sasg15
Nsg16
S'B'
p43
sg18
g42
sg19
S'container413'
p44
sg21
S'techbk/bio-wrapper:clustalw-0.0.3'
p45
sg23
S'clustalw/test.fasta|'
p46
sg25
S'clustalw -infile={input_file[0]} -type=protein -matrix=pam -outfile={output_file} -outorder=input'
p47
sg27
I-3
sg28
I-2
sg29
S'clustalw'
p48
sg31
V172.17.0.3
p49
sba.