(lp0
ccopy_reg
_reconstructor
p1
(copenstack_dashboard.dashboards.bioinformatics.gojs_parser.gojsnode
GoJsNode
p2
c__builtin__
object
p3
Ntp4
Rp5
(dp6
S'inputs'
p7
(lp8
(dp9
S'input_file[0]'
p10
S'inf2'
p11
sa(dp12
S'output_file'
p13
S'outf3'
p14
sasS'output_file'
p15
g14
sS'next_node_key'
p16
I-4
sS'name'
p17
S'wrapper'
p18
sS'docker_container_name'
p19
S'container75'
p20
sS'image_name'
p21
S'techbk/bio-wrapper:0.0.5'
p22
sS'input_url'
p23
S'incon2/inf2|'
p24
sS'command'
p25
S'clustalw -infile={input_file[0]} -type=protein -matrix=pam -outfile={output_file} -outorder=input'
p26
sS'key'
p27
I-3
sS'prev_node_key'
p28
NsS'swift_container_input'
p29
S'incon2'
p30
sbag1
(g2
g3
Ntp31
Rp32
(dp33
g7
(lp34
(dp35
S'input_file[0]'
p36
S'inf1'
p37
sa(dp38
S'output_file'
p39
S'outf1'
p40
sasg15
g40
sg16
Nsg17
S'ubuntu'
p41
sg19
S'container34'
p42
sg21
S'ubuntu:14.04'
p43
sg23
S'incon1/inf1|'
p44
sg25
S'clustalw -infile={input_file[0]} -type=protein -matrix=pam -outfile={output_file} -outorder=input'
p45
sg27
I-4
sg28
I-3
sg29
S'incon1'
p46
sba.